target datalayout = "e-m:e-p270:32:32-p271:32:32-p272:64:64-i64:64-i128:128-f80:128-n8:16:32:64-S128"
target triple = "x86_64-pc-linux-gnu"

%class.dtNodePool = type <{ ptr, ptr, ptr, i32, i32, i32, [4 x i8] }>

@.str = private unnamed_addr constant [51 x i8] c"dtNextPow2(m_hashSize) == (unsigned int)m_hashSize\00", align 1
@.str.1 = private unnamed_addr constant [140 x i8] c"generated/home/dtcxzyw/WorkSpace/Projects/compilers/llvm-opt-benchmark/bench/recastnavigation/recastnavigation/Detour/Source/DetourNode.cpp\00", align 1
@.str.2 = private unnamed_addr constant [92 x i8] c"m_maxNodes > 0 && m_maxNodes <= DT_NULL_IDX && m_maxNodes <= (1 << DT_NODE_PARENT_BITS) - 1\00", align 1
@.str.3 = private unnamed_addr constant [8 x i8] c"m_nodes\00", align 1
@.str.4 = private unnamed_addr constant [7 x i8] c"m_next\00", align 1
@.str.5 = private unnamed_addr constant [8 x i8] c"m_first\00", align 1

; Function Attrs: mustprogress nounwind uwtable
define linkonce_odr noundef i32 @_Z10dtNextPow2j(i32 noundef %0) #2 comdat {
  %2 = alloca i32, align 4
  store i32 %0, ptr %2, align 4
  %3 = load i32, ptr %2, align 4
  %4 = add i32 %3, -1
  store i32 %4, ptr %2, align 4
  %5 = load i32, ptr %2, align 4
  %6 = lshr i32 %5, 1
  %7 = load i32, ptr %2, align 4
  %8 = or i32 %7, %6
  store i32 %8, ptr %2, align 4
  %9 = load i32, ptr %2, align 4
  %10 = lshr i32 %9, 2
  %11 = load i32, ptr %2, align 4
  %12 = or i32 %11, %10
  store i32 %12, ptr %2, align 4
  %13 = load i32, ptr %2, align 4
  %14 = lshr i32 %13, 4
  %15 = load i32, ptr %2, align 4
  %16 = or i32 %15, %14
  store i32 %16, ptr %2, align 4
  %17 = load i32, ptr %2, align 4
  %18 = lshr i32 %17, 8
  %19 = load i32, ptr %2, align 4
  %20 = or i32 %19, %18
  store i32 %20, ptr %2, align 4
  %21 = load i32, ptr %2, align 4
  %22 = lshr i32 %21, 16
  %23 = load i32, ptr %2, align 4
  %24 = or i32 %23, %22
  store i32 %24, ptr %2, align 4
  %25 = load i32, ptr %2, align 4
  %26 = add i32 %25, 1
  store i32 %26, ptr %2, align 4
  %27 = load i32, ptr %2, align 4
  ret i32 %27
}

; Function Attrs: mustprogress uwtable
define void @_ZN10dtNodePoolC2Eii(ptr noundef nonnull align 8 dereferenceable(36) %0, i32 noundef %1, i32 noundef %2) unnamed_addr #0 align 2 {
  %4 = alloca ptr, align 8
  %5 = alloca i32, align 4
  %6 = alloca i32, align 4
  %7 = alloca ptr, align 8
  %8 = alloca ptr, align 8
  %9 = alloca ptr, align 8
  %10 = alloca ptr, align 8
  %11 = alloca ptr, align 8
  store ptr %0, ptr %4, align 8
  store i32 %1, ptr %5, align 4
  store i32 %2, ptr %6, align 4
  %12 = load ptr, ptr %4, align 8
  %13 = getelementptr inbounds %class.dtNodePool, ptr %12, i32 0, i32 0
  store ptr null, ptr %13, align 8
  %14 = getelementptr inbounds %class.dtNodePool, ptr %12, i32 0, i32 1
  store ptr null, ptr %14, align 8
  %15 = getelementptr inbounds %class.dtNodePool, ptr %12, i32 0, i32 2
  store ptr null, ptr %15, align 8
  %16 = getelementptr inbounds %class.dtNodePool, ptr %12, i32 0, i32 3
  %17 = load i32, ptr %5, align 4
  store i32 %17, ptr %16, align 8
  %18 = getelementptr inbounds %class.dtNodePool, ptr %12, i32 0, i32 4
  %19 = load i32, ptr %6, align 4
  store i32 %19, ptr %18, align 4
  %20 = getelementptr inbounds %class.dtNodePool, ptr %12, i32 0, i32 5
  store i32 0, ptr %20, align 8
  %21 = call noundef ptr @_Z21dtAssertFailGetCustomv()
  store ptr %21, ptr %7, align 8
  %22 = load ptr, ptr %7, align 8
  %23 = icmp eq ptr %22, null
  br i1 %23, label %24, label %25

24:                                               ; preds = %3
  br label %35

25:                                               ; preds = %3
  %26 = getelementptr inbounds %class.dtNodePool, ptr %12, i32 0, i32 4
  %27 = load i32, ptr %26, align 4
  %28 = call noundef i32 @_Z10dtNextPow2j(i32 noundef %27)
  %29 = getelementptr inbounds %class.dtNodePool, ptr %12, i32 0, i32 4
  %30 = load i32, ptr %29, align 4
  %31 = icmp eq i32 %28, %30
  br i1 %31, label %34, label %32

32:                                               ; preds = %25
  %33 = load ptr, ptr %7, align 8
  call void %33(ptr noundef @.str, ptr noundef @.str.1, i32 noundef 59)
  br label %34

34:                                               ; preds = %32, %25
  br label %35

35:                                               ; preds = %34, %24
  %36 = call noundef ptr @_Z21dtAssertFailGetCustomv()
  store ptr %36, ptr %8, align 8
  %37 = load ptr, ptr %8, align 8
  %38 = icmp eq ptr %37, null
  br i1 %38, label %39, label %40

39:                                               ; preds = %35
  br label %55

40:                                               ; preds = %35
  %41 = getelementptr inbounds %class.dtNodePool, ptr %12, i32 0, i32 3
  %42 = load i32, ptr %41, align 8
  %43 = icmp sgt i32 %42, 0
  br i1 %43, label %44, label %52

44:                                               ; preds = %40
  %45 = getelementptr inbounds %class.dtNodePool, ptr %12, i32 0, i32 3
  %46 = load i32, ptr %45, align 8
  %47 = icmp sle i32 %46, 65535
  br i1 %47, label %48, label %52

48:                                               ; preds = %44
  %49 = getelementptr inbounds %class.dtNodePool, ptr %12, i32 0, i32 3
  %50 = load i32, ptr %49, align 8
  %51 = icmp sle i32 %50, 16777215
  br i1 %51, label %54, label %52

52:                                               ; preds = %48, %44, %40
  %53 = load ptr, ptr %8, align 8
  call void %53(ptr noundef @.str.2, ptr noundef @.str.1, i32 noundef 62)
  br label %54

54:                                               ; preds = %52, %48
  br label %55

55:                                               ; preds = %54, %39
  %56 = getelementptr inbounds %class.dtNodePool, ptr %12, i32 0, i32 3
  %57 = load i32, ptr %56, align 8
  %58 = sext i32 %57 to i64
  %59 = mul i64 28, %58
  %60 = call noundef ptr @_Z7dtAllocm11dtAllocHint(i64 noundef %59, i32 noundef 0)
  %61 = getelementptr inbounds %class.dtNodePool, ptr %12, i32 0, i32 0
  store ptr %60, ptr %61, align 8
  %62 = getelementptr inbounds %class.dtNodePool, ptr %12, i32 0, i32 3
  %63 = load i32, ptr %62, align 8
  %64 = sext i32 %63 to i64
  %65 = mul i64 2, %64
  %66 = call noundef ptr @_Z7dtAllocm11dtAllocHint(i64 noundef %65, i32 noundef 0)
  %67 = getelementptr inbounds %class.dtNodePool, ptr %12, i32 0, i32 2
  store ptr %66, ptr %67, align 8
  %68 = load i32, ptr %6, align 4
  %69 = sext i32 %68 to i64
  %70 = mul i64 2, %69
  %71 = call noundef ptr @_Z7dtAllocm11dtAllocHint(i64 noundef %70, i32 noundef 0)
  %72 = getelementptr inbounds %class.dtNodePool, ptr %12, i32 0, i32 1
  store ptr %71, ptr %72, align 8
  %73 = call noundef ptr @_Z21dtAssertFailGetCustomv()
  store ptr %73, ptr %9, align 8
  %74 = load ptr, ptr %9, align 8
  %75 = icmp eq ptr %74, null
  br i1 %75, label %76, label %77

76:                                               ; preds = %55
  br label %84

77:                                               ; preds = %55
  %78 = getelementptr inbounds %class.dtNodePool, ptr %12, i32 0, i32 0
  %79 = load ptr, ptr %78, align 8
  %80 = icmp ne ptr %79, null
  br i1 %80, label %83, label %81

81:                                               ; preds = %77
  %82 = load ptr, ptr %9, align 8
  call void %82(ptr noundef @.str.3, ptr noundef @.str.1, i32 noundef 68)
  br label %83

83:                                               ; preds = %81, %77
  br label %84

84:                                               ; preds = %83, %76
  %85 = call noundef ptr @_Z21dtAssertFailGetCustomv()
  store ptr %85, ptr %10, align 8
  %86 = load ptr, ptr %10, align 8
  %87 = icmp eq ptr %86, null
  br i1 %87, label %88, label %89

88:                                               ; preds = %84
  br label %96

89:                                               ; preds = %84
  %90 = getelementptr inbounds %class.dtNodePool, ptr %12, i32 0, i32 2
  %91 = load ptr, ptr %90, align 8
  %92 = icmp ne ptr %91, null
  br i1 %92, label %95, label %93

93:                                               ; preds = %89
  %94 = load ptr, ptr %10, align 8
  call void %94(ptr noundef @.str.4, ptr noundef @.str.1, i32 noundef 69)
  br label %95

95:                                               ; preds = %93, %89
  br label %96

96:                                               ; preds = %95, %88
  %97 = call noundef ptr @_Z21dtAssertFailGetCustomv()
  store ptr %97, ptr %11, align 8
  %98 = load ptr, ptr %11, align 8
  %99 = icmp eq ptr %98, null
  br i1 %99, label %100, label %101

100:                                              ; preds = %96
  br label %108

101:                                              ; preds = %96
  %102 = getelementptr inbounds %class.dtNodePool, ptr %12, i32 0, i32 1
  %103 = load ptr, ptr %102, align 8
  %104 = icmp ne ptr %103, null
  br i1 %104, label %107, label %105

105:                                              ; preds = %101
  %106 = load ptr, ptr %11, align 8
  call void %106(ptr noundef @.str.5, ptr noundef @.str.1, i32 noundef 70)
  br label %107

107:                                              ; preds = %105, %101
  br label %108

108:                                              ; preds = %107, %100
  %109 = getelementptr inbounds %class.dtNodePool, ptr %12, i32 0, i32 1
  %110 = load ptr, ptr %109, align 8
  %111 = getelementptr inbounds %class.dtNodePool, ptr %12, i32 0, i32 4
  %112 = load i32, ptr %111, align 4
  %113 = sext i32 %112 to i64
  %114 = mul i64 2, %113
  call void @llvm.memset.p0.i64(ptr align 2 %110, i8 -1, i64 %114, i1 false)
  %115 = getelementptr inbounds %class.dtNodePool, ptr %12, i32 0, i32 2
  %116 = load ptr, ptr %115, align 8
  %117 = getelementptr inbounds %class.dtNodePool, ptr %12, i32 0, i32 3
  %118 = load i32, ptr %117, align 8
  %119 = sext i32 %118 to i64
  %120 = mul i64 2, %119
  call void @llvm.memset.p0.i64(ptr align 2 %116, i8 -1, i64 %120, i1 false)
  ret void
}