; Function Attrs: mustprogress uwtable
define void @_ZN10dtNodePoolC2Eii(ptr noundef nonnull align 8 captures(none) dereferenceable(36) initializes((0, 36)) %0, i32 noundef %1, i32 noundef %2) unnamed_addr #0 align 2 {
  %4 = getelementptr inbounds nuw i8, ptr %0, i64 8
  %5 = getelementptr inbounds nuw i8, ptr %0, i64 16
  %6 = getelementptr inbounds nuw i8, ptr %0, i64 24
  tail call void @llvm.memset.p0.i64(ptr noundef nonnull align 8 dereferenceable(24) %0, i8 0, i64 24, i1 false)
  store i32 %1, ptr %6, align 8
  %7 = getelementptr inbounds nuw i8, ptr %0, i64 28
  store i32 %2, ptr %7, align 4
  %8 = getelementptr inbounds nuw i8, ptr %0, i64 32
  store i32 0, ptr %8, align 8
  %9 = tail call noundef ptr @_Z21dtAssertFailGetCustomv()
  %10 = icmp eq ptr %9, null
  br i1 %10, label %27, label %11

11:                                               ; preds = %3
  %12 = load i32, ptr %7, align 4
  %13 = add i32 %12, -1
  %14 = lshr i32 %13, 1
  %15 = or i32 %14, %13
  %16 = lshr i32 %15, 2
  %17 = or i32 %16, %15
  %18 = lshr i32 %17, 4
  %19 = or i32 %18, %17
  %20 = lshr i32 %19, 8
  %21 = or i32 %20, %19
  %22 = lshr i32 %21, 16
  %23 = or i32 %22, %21
  %24 = add i32 %23, 1
  %25 = icmp eq i32 %24, %12
  br i1 %25, label %27, label %26

26:                                               ; preds = %11
  tail call void %9(ptr noundef nonnull @.str, ptr noundef nonnull @.str.1, i32 noundef 59)
  br label %27

27:                                               ; preds = %11, %26, %3
  %28 = tail call noundef ptr @_Z21dtAssertFailGetCustomv()
  %29 = icmp eq ptr %28, null
  %.pre23 = load i32, ptr %6, align 8
  %30 = add i32 %.pre23, -1
  %or.cond = icmp ult i32 %30, 65535
  %or.cond25 = select i1 %29, i1 true, i1 %or.cond
  br i1 %or.cond25, label %32, label %31

31:                                               ; preds = %27
  tail call void %28(ptr noundef nonnull @.str.2, ptr noundef nonnull @.str.1, i32 noundef 62)
  %.pre = load i32, ptr %6, align 8
  br label %32

32:                                               ; preds = %31, %27
  %33 = phi i32 [ %.pre, %31 ], [ %.pre23, %27 ]
  %34 = sext i32 %33 to i64
  %35 = mul nsw i64 %34, 28
  %36 = tail call noundef ptr @_Z7dtAllocm11dtAllocHint(i64 noundef %35, i32 noundef 0)
  store ptr %36, ptr %0, align 8
  %37 = load i32, ptr %6, align 8
  %38 = sext i32 %37 to i64
  %39 = shl nsw i64 %38, 1
  %40 = tail call noundef ptr @_Z7dtAllocm11dtAllocHint(i64 noundef %39, i32 noundef 0)
  store ptr %40, ptr %5, align 8
  %41 = sext i32 %2 to i64
  %42 = shl nsw i64 %41, 1
  %43 = tail call noundef ptr @_Z7dtAllocm11dtAllocHint(i64 noundef %42, i32 noundef 0)
  store ptr %43, ptr %4, align 8
  %44 = tail call noundef ptr @_Z21dtAssertFailGetCustomv()
  %45 = icmp ne ptr %44, null
  %46 = load ptr, ptr %0, align 8
  %.not = icmp eq ptr %46, null
  %or.cond20 = select i1 %45, i1 %.not, i1 false
  br i1 %or.cond20, label %47, label %48

47:                                               ; preds = %32
  tail call void %44(ptr noundef nonnull @.str.3, ptr noundef nonnull @.str.1, i32 noundef 68)
  br label %48

48:                                               ; preds = %47, %32
  %49 = tail call noundef ptr @_Z21dtAssertFailGetCustomv()
  %50 = icmp ne ptr %49, null
  %51 = load ptr, ptr %5, align 8
  %.not18 = icmp eq ptr %51, null
  %or.cond21 = select i1 %50, i1 %.not18, i1 false
  br i1 %or.cond21, label %52, label %53

52:                                               ; preds = %48
  tail call void %49(ptr noundef nonnull @.str.4, ptr noundef nonnull @.str.1, i32 noundef 69)
  br label %53

53:                                               ; preds = %52, %48
  %54 = tail call noundef ptr @_Z21dtAssertFailGetCustomv()
  %55 = icmp ne ptr %54, null
  %56 = load ptr, ptr %4, align 8
  %.not19 = icmp eq ptr %56, null
  %or.cond22 = select i1 %55, i1 %.not19, i1 false
  br i1 %or.cond22, label %57, label %58

57:                                               ; preds = %53
  tail call void %54(ptr noundef nonnull @.str.5, ptr noundef nonnull @.str.1, i32 noundef 70)
  %.pre24 = load ptr, ptr %4, align 8
  br label %58

58:                                               ; preds = %57, %53
  %59 = phi ptr [ %.pre24, %57 ], [ %56, %53 ]
  %60 = load i32, ptr %7, align 4
  %61 = sext i32 %60 to i64
  %62 = shl nsw i64 %61, 1
  tail call void @llvm.memset.p0.i64(ptr align 2 %59, i8 -1, i64 %62, i1 false)
  %63 = load ptr, ptr %5, align 8
  %64 = load i32, ptr %6, align 8
  %65 = sext i32 %64 to i64
  %66 = shl nsw i64 %65, 1
  tail call void @llvm.memset.p0.i64(ptr align 2 %63, i8 -1, i64 %66, i1 false)
  ret void
}